#include <math.h>
#include <stdio.h>
#include <stdlib.h>
#include <string.h>
#include <iostream>
using namespace std;

int main()
{
    int n,i;
    double a,b,c,x1,x2;
    cin>>n;
    for(i=1;i<=n;i++)
    {
         cin>>a>>b>>c;
         if((b*b-4*a*c)>0)
         {
         x1=(-b+sqrt(b*b-4*a*c))/(2*a);
         x2=(-b-sqrt(b*b-4*a*c))/(2*a);
         printf("x1=%.5f;x2=%.5f\n",x1,x2);      
         continue;        
         }
         if((b*b-4*a*c)==0)
         {                  
         x1=x2=(-b)/(2*a);
         printf("x1=x2=%.5f\n",x1);
         continue;                
         }
         if((b*b-4*a*c)<0)
         {
         x1=(-b)/(2*a);
         x2=sqrt(4*a*c-b*b)/(2*a);
         if(x1==0)
         x1=0;
         printf("x1=%.5f""+""%.5fi;x2=%.5f""-""%.5fi\n",x1,x2,x1,x2);            
         continue;
         }             
    }
    return 0;    
}
